; Function Attrs: mustprogress uwtable
define noundef range(i32 -1, 2) i32 @_ZN2cv15line_descriptor16BinaryDescriptor14EDLineDetector6EDlineERNS_3MatE(ptr noundef nonnull align 8 dereferenceable(1440) %0, ptr noundef nonnull align 8 dereferenceable(96) %1) local_unnamed_addr #5 align 2 personality ptr @__gxx_personality_v0 {
  %3 = getelementptr inbounds i8, ptr %0, i64 288
  %4 = tail call noundef i32 @_ZN2cv15line_descriptor16BinaryDescriptor14EDLineDetector6EDlineERNS_3MatERNS1_10LineChainsE(ptr noundef nonnull align 8 dereferenceable(1440) %0, ptr noundef nonnull align 8 dereferenceable(96) %1, ptr noundef nonnull align 8 dereferenceable(76) %3)
  %.not = icmp eq i32 %4, 1
  br i1 %.not, label %5, label %.loopexit

5:                                                ; preds = %2
  %6 = getelementptr inbounds i8, ptr %0, i64 440
  %7 = load ptr, ptr %6, align 8
  %8 = getelementptr inbounds i8, ptr %0, i64 448
  %9 = load ptr, ptr %8, align 8
  %.not.i.i = icmp eq ptr %9, %7
  br i1 %.not.i.i, label %_ZNSt6vectorIfSaIfEE5clearEv.exit, label %10

10:                                               ; preds = %5
  store ptr %7, ptr %8, align 8
  br label %_ZNSt6vectorIfSaIfEE5clearEv.exit

_ZNSt6vectorIfSaIfEE5clearEv.exit:                ; preds = %5, %10
  %11 = getelementptr inbounds i8, ptr %0, i64 360
  %12 = load i32, ptr %11, align 8
  %.not31 = icmp eq i32 %12, 0
  br i1 %.not31, label %.loopexit, label %_ZNSt6vectorIfSaIfEE6resizeEm.exit

_ZNSt6vectorIfSaIfEE6resizeEm.exit:               ; preds = %_ZNSt6vectorIfSaIfEE5clearEv.exit
  %13 = zext i32 %12 to i64
  tail call void @_ZNSt6vectorIfSaIfEE17_M_default_appendEm(ptr noundef nonnull align 8 dereferenceable(24) %6, i64 noundef %13)
  %.pre = load ptr, ptr %8, align 8
  %.pre30 = load ptr, ptr %6, align 8
  %14 = getelementptr inbounds i8, ptr %0, i64 208
  %15 = load ptr, ptr %14, align 8
  %16 = load ptr, ptr %3, align 8
  %17 = getelementptr inbounds i8, ptr %0, i64 312
  %18 = load ptr, ptr %17, align 8
  %19 = getelementptr inbounds i8, ptr %0, i64 336
  %20 = load ptr, ptr %19, align 8
  %.not28 = icmp eq ptr %.pre, %.pre30
  br i1 %.not28, label %.loopexit, label %.lr.ph27

.lr.ph27:                                         ; preds = %_ZNSt6vectorIfSaIfEE6resizeEm.exit
  %21 = getelementptr inbounds i8, ptr %0, i64 464
  br label %22

22:                                               ; preds = %.lr.ph27, %._crit_edge
  %23 = phi ptr [ %.pre30, %.lr.ph27 ], [ %49, %._crit_edge ]
  %24 = phi i64 [ 0, %.lr.ph27 ], [ %28, %._crit_edge ]
  %.01826 = phi i32 [ 0, %.lr.ph27 ], [ %27, %._crit_edge ]
  %25 = getelementptr inbounds i32, ptr %20, i64 %24
  %26 = load i32, ptr %25, align 4
  %27 = add i32 %.01826, 1
  %28 = zext i32 %27 to i64
  %29 = getelementptr inbounds i32, ptr %20, i64 %28
  %30 = load i32, ptr %29, align 4
  %31 = icmp ult i32 %26, %30
  br i1 %31, label %.lr.ph, label %._crit_edge

.lr.ph:                                           ; preds = %22
  %32 = load i32, ptr %21, align 8
  %33 = zext i32 %26 to i64
  %wide.trip.count = zext i32 %30 to i64
  br label %34

34:                                               ; preds = %.lr.ph, %34
  %indvars.iv = phi i64 [ %33, %.lr.ph ], [ %indvars.iv.next, %34 ]
  %.024 = phi i32 [ 0, %.lr.ph ], [ %45, %34 ]
  %35 = getelementptr inbounds i32, ptr %18, i64 %indvars.iv
  %36 = load i32, ptr %35, align 4
  %37 = mul i32 %32, %36
  %38 = getelementptr inbounds i32, ptr %16, i64 %indvars.iv
  %39 = load i32, ptr %38, align 4
  %40 = add i32 %37, %39
  %41 = zext i32 %40 to i64
  %42 = getelementptr inbounds i8, ptr %15, i64 %41
  %43 = load i8, ptr %42, align 1
  %44 = zext i8 %43 to i32
  %45 = add nuw nsw i32 %.024, %44
  %indvars.iv.next = add nuw nsw i64 %indvars.iv, 1
  %exitcond.not = icmp eq i64 %indvars.iv.next, %wide.trip.count
  br i1 %exitcond.not, label %._crit_edge, label %34, !llvm.loop !79

._crit_edge:                                      ; preds = %34, %22
  %.0.lcssa = phi i32 [ 0, %22 ], [ %45, %34 ]
  %46 = uitofp nneg i32 %.0.lcssa to float
  %47 = getelementptr inbounds float, ptr %23, i64 %24
  store float %46, ptr %47, align 4
  %48 = load ptr, ptr %8, align 8
  %49 = load ptr, ptr %6, align 8
  %50 = ptrtoint ptr %48 to i64
  %51 = ptrtoint ptr %49 to i64
  %52 = sub i64 %50, %51
  %53 = ashr exact i64 %52, 2
  %54 = icmp ugt i64 %53, %28
  br i1 %54, label %22, label %.loopexit, !llvm.loop !80

.loopexit:                                        ; preds = %._crit_edge, %_ZNSt6vectorIfSaIfEE5clearEv.exit, %_ZNSt6vectorIfSaIfEE6resizeEm.exit, %2
  %.019 = phi i32 [ -1, %2 ], [ 1, %_ZNSt6vectorIfSaIfEE6resizeEm.exit ], [ 1, %_ZNSt6vectorIfSaIfEE5clearEv.exit ], [ 1, %._crit_edge ]
  ret i32 %.019
}